; Listing generated by Microsoft (R) Optimizing Compiler Version 19.21.27702.2 

include listing.inc

INCLUDELIB MSVCRTD
INCLUDELIB OLDNAMES

CONST	SEGMENT
$SG149715 DB	'D:\QT\5.15\5.15.1\msvc2019_64\include\QtCore\qmetatype.h'
	DB	00H
	ORG $+7
$SG149716 DB	'qRegisterNormalizedMetaType was called with a not normal'
	DB	'ized type name, please call qRegisterMetaType instead.', 00H
	ORG $+1
$SG149717 DB	'qRegisterNormalizedMetaType', 00H
	ORG $+4
$SG152835 DB	'D:\QT\5.15\5.15.1\msvc2019_64\include\QtCore\qmetatype.h'
	DB	00H
	ORG $+7
$SG152836 DB	'qRegisterNormalizedMetaType was called with a not normal'
	DB	'ized type name, please call qRegisterMetaType instead.', 00H
	ORG $+1
$SG152837 DB	'qRegisterNormalizedMetaType', 00H
	ORG $+4
$SG153182 DB	'D:\QT\5.15\5.15.1\msvc2019_64\include\QtCore\qmetatype.h'
	DB	00H
	ORG $+7
$SG153183 DB	'qRegisterNormalizedMetaType was called with a not normal'
	DB	'ized type name, please call qRegisterMetaType instead.', 00H
	ORG $+1
$SG153184 DB	'qRegisterNormalizedMetaType', 00H
	ORG $+4
$SG153543 DB	'D:\QT\5.15\5.15.1\msvc2019_64\include\QtCore\qmetatype.h'
	DB	00H
	ORG $+7
$SG153544 DB	'qRegisterNormalizedMetaType was called with a not normal'
	DB	'ized type name, please call qRegisterMetaType instead.', 00H
	ORG $+1
$SG153545 DB	'qRegisterNormalizedMetaType', 00H
	ORG $+4
?qt_meta_stringdata_Serialize@@3Uqt_meta_stringdata_Serialize_t@@B DD 0ffffffffH ; qt_meta_stringdata_Serialize
	DD	09H
	DD	00H
	ORG $+4
	DQ	0000000000000018H
	DB	053H
	DB	065H
	DB	072H
	DB	069H
	DB	061H
	DB	06cH
	DB	069H
	DB	07aH
	DB	065H
	DB	00H
	ORG $+6
?qt_meta_data_Serialize@@3QBIB DD 08H			; qt_meta_data_Serialize
	DD	00H
	DD	00H
	DD	00H
	DD	00H
	DD	00H
	DD	00H
	DD	00H
	DD	00H
	DD	00H
	DD	00H
	DD	00H
	DD	00H
	DD	00H
	DD	00H
	ORG $+4
$SG154675 DB	'D:\QT\5.15\5.15.1\msvc2019_64\include\QtCore\qmetatype.h'
	DB	00H
	ORG $+15
$SG154676 DB	'qRegisterNormalizedMetaType was called with a not normal'
	DB	'ized type name, please call qRegisterMetaType instead.', 00H
	ORG $+1
$SG154677 DB	'qRegisterNormalizedMetaType', 00H
CONST	ENDS
PUBLIC	?__empty_global_delete@@YAXPEAX@Z		; __empty_global_delete
PUBLIC	?__empty_global_delete@@YAXPEAX_K@Z		; __empty_global_delete
PUBLIC	??0SuperData@QMetaObject@@QEAA@PEBU1@@Z		; QMetaObject::SuperData::SuperData
PUBLIC	??C?$QScopedPointer@VQObjectData@@U?$QScopedPointerDeleter@VQObjectData@@@@@@QEBAPEAVQObjectData@@XZ ; QScopedPointer<QObjectData,QScopedPointerDeleter<QObjectData> >::operator->
PUBLIC	?metaObject@Serialize@@UEBAPEBUQMetaObject@@XZ	; Serialize::metaObject
PUBLIC	?qt_metacast@Serialize@@UEAAPEAXPEBD@Z		; Serialize::qt_metacast
PUBLIC	?qt_metacall@Serialize@@UEAAHW4Call@QMetaObject@@HPEAPEAX@Z ; Serialize::qt_metacall
PUBLIC	?qt_static_metacall@Serialize@@CAXPEAVQObject@@W4Call@QMetaObject@@HPEAPEAX@Z ; Serialize::qt_static_metacall
PUBLIC	??$link@$1?staticMetaObject@QObject@@2UQMetaObject@@B@SuperData@QMetaObject@@SA?AU01@XZ ; QMetaObject::SuperData::link<&QObject::staticMetaObject>
PUBLIC	??$staticMetaObject@$1?staticMetaObject@QObject@@2UQMetaObject@@B@QMetaObject@@SAPEBU0@XZ ; QMetaObject::staticMetaObject<&QObject::staticMetaObject>
PUBLIC	?staticMetaObject@Serialize@@2UQMetaObject@@B	; Serialize::staticMetaObject
EXTRN	strcmp:PROC
EXTRN	__imp_?dynamicMetaObject@QObjectData@@QEBAPEAUQMetaObject@@XZ:PROC
EXTRN	__imp_?qt_metacast@QObject@@UEAAPEAXPEBD@Z:PROC
EXTRN	__imp_?qt_metacall@QObject@@UEAAHW4Call@QMetaObject@@HPEAPEAX@Z:PROC
EXTRN	__imp_?staticMetaObject@QObject@@2UQMetaObject@@B:BYTE
_BSS	SEGMENT
?staticMetaObject@Serialize@@2UQMetaObject@@B DB 030H DUP (?) ; Serialize::staticMetaObject
_BSS	ENDS
pdata	SEGMENT
$pdata$?metaObject@Serialize@@UEBAPEBUQMetaObject@@XZ DD imagerel $LN5
	DD	imagerel $LN5+88
	DD	imagerel $unwind$?metaObject@Serialize@@UEBAPEBUQMetaObject@@XZ
$pdata$?qt_metacast@Serialize@@UEAAPEAXPEBD@Z DD imagerel $LN5
	DD	imagerel $LN5+75
	DD	imagerel $unwind$?qt_metacast@Serialize@@UEAAPEAXPEBD@Z
$pdata$?qt_metacall@Serialize@@UEAAHW4Call@QMetaObject@@HPEAPEAX@Z DD imagerel $LN3
	DD	imagerel $LN3+61
	DD	imagerel $unwind$?qt_metacall@Serialize@@UEAAHW4Call@QMetaObject@@HPEAPEAX@Z
pdata	ENDS
;	COMDAT pdata
pdata	SEGMENT
$pdata$??$link@$1?staticMetaObject@QObject@@2UQMetaObject@@B@SuperData@QMetaObject@@SA?AU01@XZ DD imagerel $LN3
	DD	imagerel $LN3+37
	DD	imagerel $unwind$??$link@$1?staticMetaObject@QObject@@2UQMetaObject@@B@SuperData@QMetaObject@@SA?AU01@XZ
pdata	ENDS
;	COMDAT pdata
pdata	SEGMENT
$pdata$??__E?staticMetaObject@Serialize@@2UQMetaObject@@B@@YAXXZ DD imagerel ??__E?staticMetaObject@Serialize@@2UQMetaObject@@B@@YAXXZ
	DD	imagerel ??__E?staticMetaObject@Serialize@@2UQMetaObject@@B@@YAXXZ+85
	DD	imagerel $unwind$??__E?staticMetaObject@Serialize@@2UQMetaObject@@B@@YAXXZ
pdata	ENDS
CRT$XCU	SEGMENT
??staticMetaObject$initializer$@Serialize@@2P6AXXZEA@@3P6AXXZEA DQ FLAT:??__E?staticMetaObject@Serialize@@2UQMetaObject@@B@@YAXXZ ; ??staticMetaObject$initializer$@Serialize@@2P6AXXZEA@@3P6AXXZEA
CRT$XCU	ENDS
;	COMDAT xdata
xdata	SEGMENT
$unwind$??__E?staticMetaObject@Serialize@@2UQMetaObject@@B@@YAXXZ DD 010401H
	DD	04204H
xdata	ENDS
;	COMDAT xdata
xdata	SEGMENT
$unwind$??$link@$1?staticMetaObject@QObject@@2UQMetaObject@@B@SuperData@QMetaObject@@SA?AU01@XZ DD 010901H
	DD	04209H
xdata	ENDS
xdata	SEGMENT
$unwind$?metaObject@Serialize@@UEBAPEBUQMetaObject@@XZ DD 010901H
	DD	06209H
$unwind$?qt_metacast@Serialize@@UEAAPEAXPEBD@Z DD 010e01H
	DD	0420eH
$unwind$?qt_metacall@Serialize@@UEAAHW4Call@QMetaObject@@HPEAPEAX@Z DD 011701H
	DD	04217H
xdata	ENDS
; Function compile flags: /Odtp
;	COMDAT ??__E?staticMetaObject@Serialize@@2UQMetaObject@@B@@YAXXZ
text$di	SEGMENT
??__E?staticMetaObject@Serialize@@2UQMetaObject@@B@@YAXXZ PROC ; `dynamic initializer for 'Serialize::staticMetaObject'', COMDAT
; File C:\Users\cgarg\source\repos\pmartellone13\PDS_Project\Client\ProgettoGUI\GeneratedFiles\Debug\moc_Serialize.cpp
; Line 73
	sub	rsp, 40					; 00000028H
; Line 67
	lea	rcx, OFFSET FLAT:?staticMetaObject@Serialize@@2UQMetaObject@@B ; Serialize::staticMetaObject
	call	??$link@$1?staticMetaObject@QObject@@2UQMetaObject@@B@SuperData@QMetaObject@@SA?AU01@XZ ; QMetaObject::SuperData::link<&QObject::staticMetaObject>
; Line 68
	lea	rax, OFFSET FLAT:?qt_meta_stringdata_Serialize@@3Uqt_meta_stringdata_Serialize_t@@B
	mov	QWORD PTR ?staticMetaObject@Serialize@@2UQMetaObject@@B+8, rax
; Line 69
	lea	rax, OFFSET FLAT:?qt_meta_data_Serialize@@3QBIB
	mov	QWORD PTR ?staticMetaObject@Serialize@@2UQMetaObject@@B+16, rax
; Line 70
	lea	rax, OFFSET FLAT:?qt_static_metacall@Serialize@@CAXPEAVQObject@@W4Call@QMetaObject@@HPEAPEAX@Z ; Serialize::qt_static_metacall
	mov	QWORD PTR ?staticMetaObject@Serialize@@2UQMetaObject@@B+24, rax
; Line 71
	mov	QWORD PTR ?staticMetaObject@Serialize@@2UQMetaObject@@B+32, 0
; Line 72
	mov	QWORD PTR ?staticMetaObject@Serialize@@2UQMetaObject@@B+40, 0
	add	rsp, 40					; 00000028H
	ret	0
??__E?staticMetaObject@Serialize@@2UQMetaObject@@B@@YAXXZ ENDP ; `dynamic initializer for 'Serialize::staticMetaObject''
text$di	ENDS
; Function compile flags: /Odtp
;	COMDAT ??$staticMetaObject@$1?staticMetaObject@QObject@@2UQMetaObject@@B@QMetaObject@@SAPEBU0@XZ
_TEXT	SEGMENT
??$staticMetaObject@$1?staticMetaObject@QObject@@2UQMetaObject@@B@QMetaObject@@SAPEBU0@XZ PROC ; QMetaObject::staticMetaObject<&QObject::staticMetaObject>, COMDAT
; File D:\QT\5.15\5.15.1\msvc2019_64\include\QtCore\qobjectdefs.h
; Line 577
	mov	rax, QWORD PTR __imp_?staticMetaObject@QObject@@2UQMetaObject@@B
; Line 578
	ret	0
??$staticMetaObject@$1?staticMetaObject@QObject@@2UQMetaObject@@B@QMetaObject@@SAPEBU0@XZ ENDP ; QMetaObject::staticMetaObject<&QObject::staticMetaObject>
_TEXT	ENDS
; Function compile flags: /Odtp
;	COMDAT ??$link@$1?staticMetaObject@QObject@@2UQMetaObject@@B@SuperData@QMetaObject@@SA?AU01@XZ
_TEXT	SEGMENT
__$ReturnUdt$ = 48
??$link@$1?staticMetaObject@QObject@@2UQMetaObject@@B@SuperData@QMetaObject@@SA?AU01@XZ PROC ; QMetaObject::SuperData::link<&QObject::staticMetaObject>, COMDAT
; File D:\QT\5.15\5.15.1\msvc2019_64\include\QtCore\qobjectdefs.h
; Line 600
$LN3:
	mov	QWORD PTR [rsp+8], rcx
	sub	rsp, 40					; 00000028H
	call	??$staticMetaObject@$1?staticMetaObject@QObject@@2UQMetaObject@@B@QMetaObject@@SAPEBU0@XZ ; QMetaObject::staticMetaObject<&QObject::staticMetaObject>
	mov	rdx, rax
	mov	rcx, QWORD PTR __$ReturnUdt$[rsp]
	call	??0SuperData@QMetaObject@@QEAA@PEBU1@@Z	; QMetaObject::SuperData::SuperData
	mov	rax, QWORD PTR __$ReturnUdt$[rsp]
	add	rsp, 40					; 00000028H
	ret	0
??$link@$1?staticMetaObject@QObject@@2UQMetaObject@@B@SuperData@QMetaObject@@SA?AU01@XZ ENDP ; QMetaObject::SuperData::link<&QObject::staticMetaObject>
_TEXT	ENDS
; Function compile flags: /Odtp
_TEXT	SEGMENT
_o$ = 8
_c$ = 16
_id$ = 24
_a$ = 32
?qt_static_metacall@Serialize@@CAXPEAVQObject@@W4Call@QMetaObject@@HPEAPEAX@Z PROC ; Serialize::qt_static_metacall
; File C:\Users\cgarg\source\repos\pmartellone13\PDS_Project\Client\ProgettoGUI\GeneratedFiles\Debug\moc_Serialize.cpp
; Line 59
	mov	QWORD PTR [rsp+32], r9
	mov	DWORD PTR [rsp+24], r8d
	mov	DWORD PTR [rsp+16], edx
	mov	QWORD PTR [rsp+8], rcx
; Line 64
	ret	0
?qt_static_metacall@Serialize@@CAXPEAVQObject@@W4Call@QMetaObject@@HPEAPEAX@Z ENDP ; Serialize::qt_static_metacall
_TEXT	ENDS
; Function compile flags: /Odtp
_TEXT	SEGMENT
this$ = 48
_c$ = 56
_id$ = 64
_a$ = 72
?qt_metacall@Serialize@@UEAAHW4Call@QMetaObject@@HPEAPEAX@Z PROC ; Serialize::qt_metacall
; File C:\Users\cgarg\source\repos\pmartellone13\PDS_Project\Client\ProgettoGUI\GeneratedFiles\Debug\moc_Serialize.cpp
; Line 90
$LN3:
	mov	QWORD PTR [rsp+32], r9
	mov	DWORD PTR [rsp+24], r8d
	mov	DWORD PTR [rsp+16], edx
	mov	QWORD PTR [rsp+8], rcx
	sub	rsp, 40					; 00000028H
; Line 91
	mov	r9, QWORD PTR _a$[rsp]
	mov	r8d, DWORD PTR _id$[rsp]
	mov	edx, DWORD PTR _c$[rsp]
	mov	rcx, QWORD PTR this$[rsp]
	call	QWORD PTR __imp_?qt_metacall@QObject@@UEAAHW4Call@QMetaObject@@HPEAPEAX@Z
	mov	DWORD PTR _id$[rsp], eax
; Line 92
	mov	eax, DWORD PTR _id$[rsp]
; Line 93
	add	rsp, 40					; 00000028H
	ret	0
?qt_metacall@Serialize@@UEAAHW4Call@QMetaObject@@HPEAPEAX@Z ENDP ; Serialize::qt_metacall
_TEXT	ENDS
; Function compile flags: /Odtp
_TEXT	SEGMENT
this$ = 48
_clname$ = 56
?qt_metacast@Serialize@@UEAAPEAXPEBD@Z PROC		; Serialize::qt_metacast
; File C:\Users\cgarg\source\repos\pmartellone13\PDS_Project\Client\ProgettoGUI\GeneratedFiles\Debug\moc_Serialize.cpp
; Line 82
$LN5:
	mov	QWORD PTR [rsp+16], rdx
	mov	QWORD PTR [rsp+8], rcx
	sub	rsp, 40					; 00000028H
; Line 83
	cmp	QWORD PTR _clname$[rsp], 0
	jne	SHORT $LN2@qt_metacas
	xor	eax, eax
	jmp	SHORT $LN1@qt_metacas
$LN2@qt_metacas:
; Line 84
	lea	rdx, OFFSET FLAT:?qt_meta_stringdata_Serialize@@3Uqt_meta_stringdata_Serialize_t@@B+24
	mov	rcx, QWORD PTR _clname$[rsp]
	call	strcmp
	test	eax, eax
	jne	SHORT $LN3@qt_metacas
; Line 85
	mov	rax, QWORD PTR this$[rsp]
	jmp	SHORT $LN1@qt_metacas
$LN3@qt_metacas:
; Line 86
	mov	rdx, QWORD PTR _clname$[rsp]
	mov	rcx, QWORD PTR this$[rsp]
	call	QWORD PTR __imp_?qt_metacast@QObject@@UEAAPEAXPEBD@Z
$LN1@qt_metacas:
; Line 87
	add	rsp, 40					; 00000028H
	ret	0
?qt_metacast@Serialize@@UEAAPEAXPEBD@Z ENDP		; Serialize::qt_metacast
_TEXT	ENDS
; Function compile flags: /Odtp
_TEXT	SEGMENT
tv82 = 32
this$ = 64
?metaObject@Serialize@@UEBAPEBUQMetaObject@@XZ PROC	; Serialize::metaObject
; File C:\Users\cgarg\source\repos\pmartellone13\PDS_Project\Client\ProgettoGUI\GeneratedFiles\Debug\moc_Serialize.cpp
; Line 77
$LN5:
	mov	QWORD PTR [rsp+8], rcx
	sub	rsp, 56					; 00000038H
; Line 78
	mov	rax, QWORD PTR this$[rsp]
	add	rax, 8
	mov	rcx, rax
	call	??C?$QScopedPointer@VQObjectData@@U?$QScopedPointerDeleter@VQObjectData@@@@@@QEBAPEAVQObjectData@@XZ ; QScopedPointer<QObjectData,QScopedPointerDeleter<QObjectData> >::operator->
	cmp	QWORD PTR [rax+40], 0
	je	SHORT $LN3@metaObject
	mov	rax, QWORD PTR this$[rsp]
	add	rax, 8
	mov	rcx, rax
	call	??C?$QScopedPointer@VQObjectData@@U?$QScopedPointerDeleter@VQObjectData@@@@@@QEBAPEAVQObjectData@@XZ ; QScopedPointer<QObjectData,QScopedPointerDeleter<QObjectData> >::operator->
	mov	rcx, rax
	call	QWORD PTR __imp_?dynamicMetaObject@QObjectData@@QEBAPEAUQMetaObject@@XZ
	mov	QWORD PTR tv82[rsp], rax
	jmp	SHORT $LN4@metaObject
$LN3@metaObject:
	lea	rax, OFFSET FLAT:?staticMetaObject@Serialize@@2UQMetaObject@@B ; Serialize::staticMetaObject
	mov	QWORD PTR tv82[rsp], rax
$LN4@metaObject:
	mov	rax, QWORD PTR tv82[rsp]
; Line 79
	add	rsp, 56					; 00000038H
	ret	0
?metaObject@Serialize@@UEBAPEBUQMetaObject@@XZ ENDP	; Serialize::metaObject
_TEXT	ENDS
; Function compile flags: /Odtp
;	COMDAT ??C?$QScopedPointer@VQObjectData@@U?$QScopedPointerDeleter@VQObjectData@@@@@@QEBAPEAVQObjectData@@XZ
_TEXT	SEGMENT
this$ = 8
??C?$QScopedPointer@VQObjectData@@U?$QScopedPointerDeleter@VQObjectData@@@@@@QEBAPEAVQObjectData@@XZ PROC ; QScopedPointer<QObjectData,QScopedPointerDeleter<QObjectData> >::operator->, COMDAT
; File D:\QT\5.15\5.15.1\msvc2019_64\include\QtCore\qscopedpointer.h
; Line 117
	mov	QWORD PTR [rsp+8], rcx
; Line 118
	mov	rax, QWORD PTR this$[rsp]
	mov	rax, QWORD PTR [rax]
; Line 119
	ret	0
??C?$QScopedPointer@VQObjectData@@U?$QScopedPointerDeleter@VQObjectData@@@@@@QEBAPEAVQObjectData@@XZ ENDP ; QScopedPointer<QObjectData,QScopedPointerDeleter<QObjectData> >::operator->
_TEXT	ENDS
; Function compile flags: /Odtp
;	COMDAT ??0SuperData@QMetaObject@@QEAA@PEBU1@@Z
_TEXT	SEGMENT
this$ = 8
mo$ = 16
??0SuperData@QMetaObject@@QEAA@PEBU1@@Z PROC		; QMetaObject::SuperData::SuperData, COMDAT
; File D:\QT\5.15\5.15.1\msvc2019_64\include\QtCore\qobjectdefs.h
; Line 584
	mov	QWORD PTR [rsp+16], rdx
	mov	QWORD PTR [rsp+8], rcx
	mov	rax, QWORD PTR this$[rsp]
	mov	rcx, QWORD PTR mo$[rsp]
	mov	QWORD PTR [rax], rcx
	mov	rax, QWORD PTR this$[rsp]
	ret	0
??0SuperData@QMetaObject@@QEAA@PEBU1@@Z ENDP		; QMetaObject::SuperData::SuperData
_TEXT	ENDS
; Function compile flags: /Odtp
;	COMDAT ?__empty_global_delete@@YAXPEAX_K@Z
_TEXT	SEGMENT
__formal$ = 8
__formal$ = 16
?__empty_global_delete@@YAXPEAX_K@Z PROC		; __empty_global_delete, COMDAT
; File C:\Users\cgarg\source\repos\pmartellone13\PDS_Project\Client\ProgettoGUI\GeneratedFiles\Debug\moc_Serialize.cpp
; Line 96
	mov	QWORD PTR [rsp+16], rdx
	mov	QWORD PTR [rsp+8], rcx
	ret	0
?__empty_global_delete@@YAXPEAX_K@Z ENDP		; __empty_global_delete
_TEXT	ENDS
; Function compile flags: /Odtp
;	COMDAT ?__empty_global_delete@@YAXPEAX@Z
_TEXT	SEGMENT
__formal$ = 8
?__empty_global_delete@@YAXPEAX@Z PROC			; __empty_global_delete, COMDAT
; File C:\Users\cgarg\source\repos\pmartellone13\PDS_Project\Client\ProgettoGUI\GeneratedFiles\Debug\moc_Serialize.cpp
; Line 96
	mov	QWORD PTR [rsp+8], rcx
	ret	0
?__empty_global_delete@@YAXPEAX@Z ENDP			; __empty_global_delete
_TEXT	ENDS
END
