; Listing generated by Microsoft (R) Optimizing Compiler Version 19.21.27702.2 

include listing.inc

INCLUDELIB MSVCRTD
INCLUDELIB OLDNAMES

CONST	SEGMENT
$SG141622 DB	'D:\QT\5.12.3\msvc2017_64\include\QtCore\qmetatype.h', 00H
	ORG $+12
$SG141623 DB	'qRegisterNormalizedMetaType was called with a not normal'
	DB	'ized type name, please call qRegisterMetaType instead.', 00H
	ORG $+1
$SG141624 DB	'qRegisterNormalizedMetaType', 00H
	ORG $+4
$SG144625 DB	'D:\QT\5.12.3\msvc2017_64\include\QtCore\qmetatype.h', 00H
	ORG $+12
$SG144626 DB	'qRegisterNormalizedMetaType was called with a not normal'
	DB	'ized type name, please call qRegisterMetaType instead.', 00H
	ORG $+1
$SG144627 DB	'qRegisterNormalizedMetaType', 00H
	ORG $+4
$SG144986 DB	'D:\QT\5.12.3\msvc2017_64\include\QtCore\qmetatype.h', 00H
	ORG $+12
$SG144987 DB	'qRegisterNormalizedMetaType was called with a not normal'
	DB	'ized type name, please call qRegisterMetaType instead.', 00H
	ORG $+1
$SG144988 DB	'qRegisterNormalizedMetaType', 00H
	ORG $+4
$SG145347 DB	'D:\QT\5.12.3\msvc2017_64\include\QtCore\qmetatype.h', 00H
	ORG $+12
$SG145348 DB	'qRegisterNormalizedMetaType was called with a not normal'
	DB	'ized type name, please call qRegisterMetaType instead.', 00H
	ORG $+1
$SG145349 DB	'qRegisterNormalizedMetaType', 00H
	ORG $+4
$SG146196 DB	'D:\QT\5.12.3\msvc2017_64\include\QtCore\qmetatype.h', 00H
	ORG $+12
$SG146197 DB	'qRegisterNormalizedMetaType was called with a not normal'
	DB	'ized type name, please call qRegisterMetaType instead.', 00H
	ORG $+1
$SG146198 DB	'qRegisterNormalizedMetaType', 00H
	ORG $+4
?qt_meta_stringdata_FileExplorerWindow@@3Uqt_meta_stringdata_FileExplorerWindow_t@@B DD 0ffffffffH ; qt_meta_stringdata_FileExplorerWindow
	DD	012H
	DD	00H
	ORG $+4
	DQ	0000000000000060H
	DD	0ffffffffH
	DD	018H
	DD	00H
	ORG $+4
	DQ	000000000000005bH
	DD	0ffffffffH
	DD	00H
	DD	00H
	ORG $+4
	DQ	000000000000005cH
	DD	0ffffffffH
	DD	019H
	DD	00H
	ORG $+4
	DQ	0000000000000045H
	DB	046H
	DB	069H
	DB	06cH
	DB	065H
	DB	045H
	DB	078H
	DB	070H
	DB	06cH
	DB	06fH
	DB	072H
	DB	065H
	DB	072H
	DB	057H
	DB	069H
	DB	06eH
	DB	064H
	DB	06fH
	DB	077H
	DB	00H
	DB	06fH
	DB	06eH
	DB	05fH
	DB	06eH
	DB	065H
	DB	077H
	DB	046H
	DB	069H
	DB	06cH
	DB	065H
	DB	042H
	DB	075H
	DB	074H
	DB	074H
	DB	06fH
	DB	06eH
	DB	05fH
	DB	063H
	DB	06cH
	DB	069H
	DB	063H
	DB	06bH
	DB	065H
	DB	064H
	DB	00H
	DB	00H
	DB	06fH
	DB	06eH
	DB	05fH
	DB	06cH
	DB	06fH
	DB	061H
	DB	064H
	DB	046H
	DB	069H
	DB	06cH
	DB	065H
	DB	042H
	DB	075H
	DB	074H
	DB	074H
	DB	06fH
	DB	06eH
	DB	05fH
	DB	063H
	DB	06cH
	DB	069H
	DB	063H
	DB	06bH
	DB	065H
	DB	064H
	DB	00H
	ORG $+1
	ORG $+8
?qt_meta_data_FileExplorerWindow@@3QBIB DD 08H		; qt_meta_data_FileExplorerWindow
	DD	00H
	DD	00H
	DD	00H
	DD	02H
	DD	0eH
	DD	00H
	DD	00H
	DD	00H
	DD	00H
	DD	00H
	DD	00H
	DD	00H
	DD	00H
	DD	01H
	DD	00H
	DD	018H
	DD	02H
	DD	08H
	DD	03H
	DD	00H
	DD	019H
	DD	02H
	DD	08H
	DD	02bH
	DD	02bH
	DD	00H
	ORG $+4
$SG146557 DB	'D:\QT\5.12.3\msvc2017_64\include\QtCore\qmetatype.h', 00H
	ORG $+12
$SG146558 DB	'qRegisterNormalizedMetaType was called with a not normal'
	DB	'ized type name, please call qRegisterMetaType instead.', 00H
	ORG $+1
$SG146559 DB	'qRegisterNormalizedMetaType', 00H
	ORG $+4
$SG146918 DB	'D:\QT\5.12.3\msvc2017_64\include\QtCore\qmetatype.h', 00H
	ORG $+12
$SG146919 DB	'qRegisterNormalizedMetaType was called with a not normal'
	DB	'ized type name, please call qRegisterMetaType instead.', 00H
	ORG $+1
$SG146920 DB	'qRegisterNormalizedMetaType', 00H
CONST	ENDS
PUBLIC	?__empty_global_delete@@YAXPEAX@Z		; __empty_global_delete
PUBLIC	?__empty_global_delete@@YAXPEAX_K@Z		; __empty_global_delete
PUBLIC	??C?$QScopedPointer@VQObjectData@@U?$QScopedPointerDeleter@VQObjectData@@@@@@QEBAPEAVQObjectData@@XZ ; QScopedPointer<QObjectData,QScopedPointerDeleter<QObjectData> >::operator->
PUBLIC	?metaObject@FileExplorerWindow@@UEBAPEBUQMetaObject@@XZ ; FileExplorerWindow::metaObject
PUBLIC	?qt_metacast@FileExplorerWindow@@UEAAPEAXPEBD@Z	; FileExplorerWindow::qt_metacast
PUBLIC	?qt_metacall@FileExplorerWindow@@UEAAHW4Call@QMetaObject@@HPEAPEAX@Z ; FileExplorerWindow::qt_metacall
PUBLIC	?qt_static_metacall@FileExplorerWindow@@CAXPEAVQObject@@W4Call@QMetaObject@@HPEAPEAX@Z ; FileExplorerWindow::qt_static_metacall
PUBLIC	?staticMetaObject@FileExplorerWindow@@2UQMetaObject@@B ; FileExplorerWindow::staticMetaObject
EXTRN	strcmp:PROC
EXTRN	__imp_?dynamicMetaObject@QObjectData@@QEBAPEAUQMetaObject@@XZ:PROC
EXTRN	__imp_?qt_metacast@QWidget@@UEAAPEAXPEBD@Z:PROC
EXTRN	__imp_?qt_metacall@QWidget@@UEAAHW4Call@QMetaObject@@HPEAPEAX@Z:PROC
EXTRN	?on_newFileButton_clicked@FileExplorerWindow@@AEAAXXZ:PROC ; FileExplorerWindow::on_newFileButton_clicked
EXTRN	?on_loadFileButton_clicked@FileExplorerWindow@@AEAAXXZ:PROC ; FileExplorerWindow::on_loadFileButton_clicked
EXTRN	__imp_?staticMetaObject@QWidget@@2UQMetaObject@@B:BYTE
_BSS	SEGMENT
?staticMetaObject@FileExplorerWindow@@2UQMetaObject@@B DB 030H DUP (?) ; FileExplorerWindow::staticMetaObject
_BSS	ENDS
pdata	SEGMENT
$pdata$?metaObject@FileExplorerWindow@@UEBAPEBUQMetaObject@@XZ DD imagerel $LN5
	DD	imagerel $LN5+88
	DD	imagerel $unwind$?metaObject@FileExplorerWindow@@UEBAPEBUQMetaObject@@XZ
$pdata$?qt_metacast@FileExplorerWindow@@UEAAPEAXPEBD@Z DD imagerel $LN5
	DD	imagerel $LN5+75
	DD	imagerel $unwind$?qt_metacast@FileExplorerWindow@@UEAAPEAXPEBD@Z
$pdata$?qt_metacall@FileExplorerWindow@@UEAAHW4Call@QMetaObject@@HPEAPEAX@Z DD imagerel $LN9
	DD	imagerel $LN9+174
	DD	imagerel $unwind$?qt_metacall@FileExplorerWindow@@UEAAHW4Call@QMetaObject@@HPEAPEAX@Z
$pdata$?qt_static_metacall@FileExplorerWindow@@CAXPEAVQObject@@W4Call@QMetaObject@@HPEAPEAX@Z DD imagerel $LN9
	DD	imagerel $LN9+91
	DD	imagerel $unwind$?qt_static_metacall@FileExplorerWindow@@CAXPEAVQObject@@W4Call@QMetaObject@@HPEAPEAX@Z
pdata	ENDS
CRT$XCU	SEGMENT
??staticMetaObject$initializer$@FileExplorerWindow@@2P6AXXZEA@@3P6AXXZEA DQ FLAT:??__E?staticMetaObject@FileExplorerWindow@@2UQMetaObject@@B@@YAXXZ ; ??staticMetaObject$initializer$@FileExplorerWindow@@2P6AXXZEA@@3P6AXXZEA
CRT$XCU	ENDS
xdata	SEGMENT
$unwind$?metaObject@FileExplorerWindow@@UEBAPEBUQMetaObject@@XZ DD 010901H
	DD	06209H
$unwind$?qt_metacast@FileExplorerWindow@@UEAAPEAXPEBD@Z DD 010e01H
	DD	0420eH
$unwind$?qt_metacall@FileExplorerWindow@@UEAAHW4Call@QMetaObject@@HPEAPEAX@Z DD 011701H
	DD	04217H
$unwind$?qt_static_metacall@FileExplorerWindow@@CAXPEAVQObject@@W4Call@QMetaObject@@HPEAPEAX@Z DD 011701H
	DD	06217H
xdata	ENDS
; Function compile flags: /Odtp
;	COMDAT ??__E?staticMetaObject@FileExplorerWindow@@2UQMetaObject@@B@@YAXXZ
text$di	SEGMENT
??__E?staticMetaObject@FileExplorerWindow@@2UQMetaObject@@B@@YAXXZ PROC ; `dynamic initializer for 'FileExplorerWindow::staticMetaObject'', COMDAT
; File C:\Users\cgarg\source\repos\pmartellone13\PDS_Project\Client\ProgettoGUI\GeneratedFiles\Debug\moc_FileExplorerWindow.cpp
; Line 84
	mov	rax, QWORD PTR __imp_?staticMetaObject@QWidget@@2UQMetaObject@@B
	mov	QWORD PTR ?staticMetaObject@FileExplorerWindow@@2UQMetaObject@@B, rax
; Line 85
	lea	rax, OFFSET FLAT:?qt_meta_stringdata_FileExplorerWindow@@3Uqt_meta_stringdata_FileExplorerWindow_t@@B
	mov	QWORD PTR ?staticMetaObject@FileExplorerWindow@@2UQMetaObject@@B+8, rax
; Line 86
	lea	rax, OFFSET FLAT:?qt_meta_data_FileExplorerWindow@@3QBIB
	mov	QWORD PTR ?staticMetaObject@FileExplorerWindow@@2UQMetaObject@@B+16, rax
; Line 87
	lea	rax, OFFSET FLAT:?qt_static_metacall@FileExplorerWindow@@CAXPEAVQObject@@W4Call@QMetaObject@@HPEAPEAX@Z ; FileExplorerWindow::qt_static_metacall
	mov	QWORD PTR ?staticMetaObject@FileExplorerWindow@@2UQMetaObject@@B+24, rax
; Line 88
	mov	QWORD PTR ?staticMetaObject@FileExplorerWindow@@2UQMetaObject@@B+32, 0
; Line 89
	mov	QWORD PTR ?staticMetaObject@FileExplorerWindow@@2UQMetaObject@@B+40, 0
	ret	0
??__E?staticMetaObject@FileExplorerWindow@@2UQMetaObject@@B@@YAXXZ ENDP ; `dynamic initializer for 'FileExplorerWindow::staticMetaObject''
text$di	ENDS
; Function compile flags: /Odtp
_TEXT	SEGMENT
tv69 = 32
_t$1 = 40
_o$ = 64
_c$ = 72
_id$ = 80
_a$ = 88
?qt_static_metacall@FileExplorerWindow@@CAXPEAVQObject@@W4Call@QMetaObject@@HPEAPEAX@Z PROC ; FileExplorerWindow::qt_static_metacall
; File C:\Users\cgarg\source\repos\pmartellone13\PDS_Project\Client\ProgettoGUI\GeneratedFiles\Debug\moc_FileExplorerWindow.cpp
; Line 70
$LN9:
	mov	QWORD PTR [rsp+32], r9
	mov	DWORD PTR [rsp+24], r8d
	mov	DWORD PTR [rsp+16], edx
	mov	QWORD PTR [rsp+8], rcx
	sub	rsp, 56					; 00000038H
; Line 71
	cmp	DWORD PTR _c$[rsp], 0
	jne	SHORT $LN4@qt_static_
; Line 72
	mov	rax, QWORD PTR _o$[rsp]
	mov	QWORD PTR _t$1[rsp], rax
; Line 74
	mov	eax, DWORD PTR _id$[rsp]
	mov	DWORD PTR tv69[rsp], eax
	cmp	DWORD PTR tv69[rsp], 0
	je	SHORT $LN5@qt_static_
	cmp	DWORD PTR tv69[rsp], 1
	je	SHORT $LN6@qt_static_
	jmp	SHORT $LN7@qt_static_
$LN5@qt_static_:
; Line 75
	mov	rcx, QWORD PTR _t$1[rsp]
	call	?on_newFileButton_clicked@FileExplorerWindow@@AEAAXXZ ; FileExplorerWindow::on_newFileButton_clicked
	jmp	SHORT $LN2@qt_static_
$LN6@qt_static_:
; Line 76
	mov	rcx, QWORD PTR _t$1[rsp]
	call	?on_loadFileButton_clicked@FileExplorerWindow@@AEAAXXZ ; FileExplorerWindow::on_loadFileButton_clicked
$LN7@qt_static_:
$LN2@qt_static_:
$LN4@qt_static_:
; Line 81
	add	rsp, 56					; 00000038H
	ret	0
?qt_static_metacall@FileExplorerWindow@@CAXPEAVQObject@@W4Call@QMetaObject@@HPEAPEAX@Z ENDP ; FileExplorerWindow::qt_static_metacall
_TEXT	ENDS
; Function compile flags: /Odtp
_TEXT	SEGMENT
this$ = 48
_c$ = 56
_id$ = 64
_a$ = 72
?qt_metacall@FileExplorerWindow@@UEAAHW4Call@QMetaObject@@HPEAPEAX@Z PROC ; FileExplorerWindow::qt_metacall
; File C:\Users\cgarg\source\repos\pmartellone13\PDS_Project\Client\ProgettoGUI\GeneratedFiles\Debug\moc_FileExplorerWindow.cpp
; Line 107
$LN9:
	mov	QWORD PTR [rsp+32], r9
	mov	DWORD PTR [rsp+24], r8d
	mov	DWORD PTR [rsp+16], edx
	mov	QWORD PTR [rsp+8], rcx
	sub	rsp, 40					; 00000028H
; Line 108
	mov	r9, QWORD PTR _a$[rsp]
	mov	r8d, DWORD PTR _id$[rsp]
	mov	edx, DWORD PTR _c$[rsp]
	mov	rcx, QWORD PTR this$[rsp]
	call	QWORD PTR __imp_?qt_metacall@QWidget@@UEAAHW4Call@QMetaObject@@HPEAPEAX@Z
	mov	DWORD PTR _id$[rsp], eax
; Line 109
	cmp	DWORD PTR _id$[rsp], 0
	jge	SHORT $LN2@qt_metacal
; Line 110
	mov	eax, DWORD PTR _id$[rsp]
	jmp	SHORT $LN1@qt_metacal
$LN2@qt_metacal:
; Line 111
	cmp	DWORD PTR _c$[rsp], 0
	jne	SHORT $LN3@qt_metacal
; Line 112
	cmp	DWORD PTR _id$[rsp], 2
	jge	SHORT $LN5@qt_metacal
; Line 113
	mov	r9, QWORD PTR _a$[rsp]
	mov	r8d, DWORD PTR _id$[rsp]
	mov	edx, DWORD PTR _c$[rsp]
	mov	rcx, QWORD PTR this$[rsp]
	call	?qt_static_metacall@FileExplorerWindow@@CAXPEAVQObject@@W4Call@QMetaObject@@HPEAPEAX@Z ; FileExplorerWindow::qt_static_metacall
$LN5@qt_metacal:
; Line 114
	mov	eax, DWORD PTR _id$[rsp]
	sub	eax, 2
	mov	DWORD PTR _id$[rsp], eax
	jmp	SHORT $LN4@qt_metacal
$LN3@qt_metacal:
; Line 115
	cmp	DWORD PTR _c$[rsp], 12
	jne	SHORT $LN6@qt_metacal
; Line 116
	cmp	DWORD PTR _id$[rsp], 2
	jge	SHORT $LN7@qt_metacal
; Line 117
	mov	eax, 8
	imul	rax, rax, 0
	mov	rcx, QWORD PTR _a$[rsp]
	mov	rax, QWORD PTR [rcx+rax]
	mov	DWORD PTR [rax], -1
$LN7@qt_metacal:
; Line 118
	mov	eax, DWORD PTR _id$[rsp]
	sub	eax, 2
	mov	DWORD PTR _id$[rsp], eax
$LN6@qt_metacal:
$LN4@qt_metacal:
; Line 120
	mov	eax, DWORD PTR _id$[rsp]
$LN1@qt_metacal:
; Line 121
	add	rsp, 40					; 00000028H
	ret	0
?qt_metacall@FileExplorerWindow@@UEAAHW4Call@QMetaObject@@HPEAPEAX@Z ENDP ; FileExplorerWindow::qt_metacall
_TEXT	ENDS
; Function compile flags: /Odtp
_TEXT	SEGMENT
this$ = 48
_clname$ = 56
?qt_metacast@FileExplorerWindow@@UEAAPEAXPEBD@Z PROC	; FileExplorerWindow::qt_metacast
; File C:\Users\cgarg\source\repos\pmartellone13\PDS_Project\Client\ProgettoGUI\GeneratedFiles\Debug\moc_FileExplorerWindow.cpp
; Line 99
$LN5:
	mov	QWORD PTR [rsp+16], rdx
	mov	QWORD PTR [rsp+8], rcx
	sub	rsp, 40					; 00000028H
; Line 100
	cmp	QWORD PTR _clname$[rsp], 0
	jne	SHORT $LN2@qt_metacas
	xor	eax, eax
	jmp	SHORT $LN1@qt_metacas
$LN2@qt_metacas:
; Line 101
	lea	rdx, OFFSET FLAT:?qt_meta_stringdata_FileExplorerWindow@@3Uqt_meta_stringdata_FileExplorerWindow_t@@B+96
	mov	rcx, QWORD PTR _clname$[rsp]
	call	strcmp
	test	eax, eax
	jne	SHORT $LN3@qt_metacas
; Line 102
	mov	rax, QWORD PTR this$[rsp]
	jmp	SHORT $LN1@qt_metacas
$LN3@qt_metacas:
; Line 103
	mov	rdx, QWORD PTR _clname$[rsp]
	mov	rcx, QWORD PTR this$[rsp]
	call	QWORD PTR __imp_?qt_metacast@QWidget@@UEAAPEAXPEBD@Z
$LN1@qt_metacas:
; Line 104
	add	rsp, 40					; 00000028H
	ret	0
?qt_metacast@FileExplorerWindow@@UEAAPEAXPEBD@Z ENDP	; FileExplorerWindow::qt_metacast
_TEXT	ENDS
; Function compile flags: /Odtp
_TEXT	SEGMENT
tv82 = 32
this$ = 64
?metaObject@FileExplorerWindow@@UEBAPEBUQMetaObject@@XZ PROC ; FileExplorerWindow::metaObject
; File C:\Users\cgarg\source\repos\pmartellone13\PDS_Project\Client\ProgettoGUI\GeneratedFiles\Debug\moc_FileExplorerWindow.cpp
; Line 94
$LN5:
	mov	QWORD PTR [rsp+8], rcx
	sub	rsp, 56					; 00000038H
; Line 95
	mov	rax, QWORD PTR this$[rsp]
	add	rax, 8
	mov	rcx, rax
	call	??C?$QScopedPointer@VQObjectData@@U?$QScopedPointerDeleter@VQObjectData@@@@@@QEBAPEAVQObjectData@@XZ ; QScopedPointer<QObjectData,QScopedPointerDeleter<QObjectData> >::operator->
	cmp	QWORD PTR [rax+40], 0
	je	SHORT $LN3@metaObject
	mov	rax, QWORD PTR this$[rsp]
	add	rax, 8
	mov	rcx, rax
	call	??C?$QScopedPointer@VQObjectData@@U?$QScopedPointerDeleter@VQObjectData@@@@@@QEBAPEAVQObjectData@@XZ ; QScopedPointer<QObjectData,QScopedPointerDeleter<QObjectData> >::operator->
	mov	rcx, rax
	call	QWORD PTR __imp_?dynamicMetaObject@QObjectData@@QEBAPEAUQMetaObject@@XZ
	mov	QWORD PTR tv82[rsp], rax
	jmp	SHORT $LN4@metaObject
$LN3@metaObject:
	lea	rax, OFFSET FLAT:?staticMetaObject@FileExplorerWindow@@2UQMetaObject@@B ; FileExplorerWindow::staticMetaObject
	mov	QWORD PTR tv82[rsp], rax
$LN4@metaObject:
	mov	rax, QWORD PTR tv82[rsp]
; Line 96
	add	rsp, 56					; 00000038H
	ret	0
?metaObject@FileExplorerWindow@@UEBAPEBUQMetaObject@@XZ ENDP ; FileExplorerWindow::metaObject
_TEXT	ENDS
; Function compile flags: /Odtp
;	COMDAT ??C?$QScopedPointer@VQObjectData@@U?$QScopedPointerDeleter@VQObjectData@@@@@@QEBAPEAVQObjectData@@XZ
_TEXT	SEGMENT
this$ = 8
??C?$QScopedPointer@VQObjectData@@U?$QScopedPointerDeleter@VQObjectData@@@@@@QEBAPEAVQObjectData@@XZ PROC ; QScopedPointer<QObjectData,QScopedPointerDeleter<QObjectData> >::operator->, COMDAT
; File D:\QT\5.12.3\msvc2017_64\include\QtCore\qscopedpointer.h
; Line 117
	mov	QWORD PTR [rsp+8], rcx
; Line 118
	mov	rax, QWORD PTR this$[rsp]
	mov	rax, QWORD PTR [rax]
; Line 119
	ret	0
??C?$QScopedPointer@VQObjectData@@U?$QScopedPointerDeleter@VQObjectData@@@@@@QEBAPEAVQObjectData@@XZ ENDP ; QScopedPointer<QObjectData,QScopedPointerDeleter<QObjectData> >::operator->
_TEXT	ENDS
; Function compile flags: /Odtp
;	COMDAT ?__empty_global_delete@@YAXPEAX_K@Z
_TEXT	SEGMENT
__formal$ = 8
__formal$ = 16
?__empty_global_delete@@YAXPEAX_K@Z PROC		; __empty_global_delete, COMDAT
; File C:\Users\cgarg\source\repos\pmartellone13\PDS_Project\Client\ProgettoGUI\GeneratedFiles\Debug\moc_FileExplorerWindow.cpp
; Line 124
	mov	QWORD PTR [rsp+16], rdx
	mov	QWORD PTR [rsp+8], rcx
	ret	0
?__empty_global_delete@@YAXPEAX_K@Z ENDP		; __empty_global_delete
_TEXT	ENDS
; Function compile flags: /Odtp
;	COMDAT ?__empty_global_delete@@YAXPEAX@Z
_TEXT	SEGMENT
__formal$ = 8
?__empty_global_delete@@YAXPEAX@Z PROC			; __empty_global_delete, COMDAT
; File C:\Users\cgarg\source\repos\pmartellone13\PDS_Project\Client\ProgettoGUI\GeneratedFiles\Debug\moc_FileExplorerWindow.cpp
; Line 124
	mov	QWORD PTR [rsp+8], rcx
	ret	0
?__empty_global_delete@@YAXPEAX@Z ENDP			; __empty_global_delete
_TEXT	ENDS
END
