; Listing generated by Microsoft (R) Optimizing Compiler Version 19.21.27702.2 

include listing.inc

INCLUDELIB MSVCRTD
INCLUDELIB OLDNAMES

CONST	SEGMENT
$SG157186 DB	'D:\QT\5.15\5.15.1\msvc2019_64\include\QtCore\qmetatype.h'
	DB	00H
	ORG $+7
$SG157187 DB	'qRegisterNormalizedMetaType was called with a not normal'
	DB	'ized type name, please call qRegisterMetaType instead.', 00H
	ORG $+1
$SG157188 DB	'qRegisterNormalizedMetaType', 00H
	ORG $+4
$SG157533 DB	'D:\QT\5.15\5.15.1\msvc2019_64\include\QtCore\qmetatype.h'
	DB	00H
	ORG $+7
$SG157534 DB	'qRegisterNormalizedMetaType was called with a not normal'
	DB	'ized type name, please call qRegisterMetaType instead.', 00H
	ORG $+1
$SG157535 DB	'qRegisterNormalizedMetaType', 00H
	ORG $+4
$SG157894 DB	'D:\QT\5.15\5.15.1\msvc2019_64\include\QtCore\qmetatype.h'
	DB	00H
	ORG $+7
$SG157895 DB	'qRegisterNormalizedMetaType was called with a not normal'
	DB	'ized type name, please call qRegisterMetaType instead.', 00H
	ORG $+1
$SG157896 DB	'qRegisterNormalizedMetaType', 00H
	ORG $+4
?qt_meta_stringdata_Settings@@3Uqt_meta_stringdata_Settings_t@@B DD 0ffffffffH ; qt_meta_stringdata_Settings
	DD	08H
	DD	00H
	ORG $+4
	DQ	0000000000000078H
	DD	0ffffffffH
	DD	01dH
	DD	00H
	ORG $+4
	DQ	0000000000000069H
	DD	0ffffffffH
	DD	00H
	DD	00H
	ORG $+4
	DQ	000000000000006fH
	DD	0ffffffffH
	DD	01dH
	DD	00H
	ORG $+4
	DQ	0000000000000058H
	DD	0ffffffffH
	DD	015H
	DD	00H
	ORG $+4
	DQ	000000000000005eH
	DB	053H
	DB	065H
	DB	074H
	DB	074H
	DB	069H
	DB	06eH
	DB	067H
	DB	073H
	DB	00H
	DB	06fH
	DB	06eH
	DB	05fH
	DB	065H
	DB	064H
	DB	069H
	DB	074H
	DB	055H
	DB	073H
	DB	065H
	DB	072H
	DB	06eH
	DB	061H
	DB	06dH
	DB	065H
	DB	042H
	DB	075H
	DB	074H
	DB	074H
	DB	06fH
	DB	06eH
	DB	05fH
	DB	063H
	DB	06cH
	DB	069H
	DB	063H
	DB	06bH
	DB	065H
	DB	064H
	DB	00H
	DB	00H
	DB	06fH
	DB	06eH
	DB	05fH
	DB	065H
	DB	064H
	DB	069H
	DB	074H
	DB	050H
	DB	061H
	DB	073H
	DB	073H
	DB	077H
	DB	06fH
	DB	072H
	DB	064H
	DB	042H
	DB	075H
	DB	074H
	DB	074H
	DB	06fH
	DB	06eH
	DB	05fH
	DB	063H
	DB	06cH
	DB	069H
	DB	063H
	DB	06bH
	DB	065H
	DB	064H
	DB	00H
	DB	06fH
	DB	06eH
	DB	05fH
	DB	070H
	DB	075H
	DB	073H
	DB	068H
	DB	042H
	DB	075H
	DB	074H
	DB	074H
	DB	06fH
	DB	06eH
	DB	05fH
	DB	063H
	DB	06cH
	DB	069H
	DB	063H
	DB	06bH
	DB	065H
	DB	064H
	DB	00H
	ORG $+4
	ORG $+8
?qt_meta_data_Settings@@3QBIB DD 08H			; qt_meta_data_Settings
	DD	00H
	DD	00H
	DD	00H
	DD	03H
	DD	0eH
	DD	00H
	DD	00H
	DD	00H
	DD	00H
	DD	00H
	DD	00H
	DD	00H
	DD	00H
	DD	01H
	DD	00H
	DD	01dH
	DD	02H
	DD	08H
	DD	03H
	DD	00H
	DD	01eH
	DD	02H
	DD	08H
	DD	04H
	DD	00H
	DD	01fH
	DD	02H
	DD	08H
	DD	02bH
	DD	02bH
	DD	02bH
	DD	00H
	ORG $+4
$SG159022 DB	'D:\QT\5.15\5.15.1\msvc2019_64\include\QtCore\qmetatype.h'
	DB	00H
	ORG $+15
$SG159023 DB	'qRegisterNormalizedMetaType was called with a not normal'
	DB	'ized type name, please call qRegisterMetaType instead.', 00H
	ORG $+1
$SG159024 DB	'qRegisterNormalizedMetaType', 00H
	ORG $+4
$SG159421 DB	'D:\QT\5.15\5.15.1\msvc2019_64\include\QtCore\qmetatype.h'
	DB	00H
	ORG $+7
$SG159422 DB	'qRegisterNormalizedMetaType was called with a not normal'
	DB	'ized type name, please call qRegisterMetaType instead.', 00H
	ORG $+1
$SG159423 DB	'qRegisterNormalizedMetaType', 00H
	ORG $+4
$SG159782 DB	'D:\QT\5.15\5.15.1\msvc2019_64\include\QtCore\qmetatype.h'
	DB	00H
	ORG $+7
$SG159783 DB	'qRegisterNormalizedMetaType was called with a not normal'
	DB	'ized type name, please call qRegisterMetaType instead.', 00H
	ORG $+1
$SG159784 DB	'qRegisterNormalizedMetaType', 00H
	ORG $+4
$SG160143 DB	'D:\QT\5.15\5.15.1\msvc2019_64\include\QtCore\qmetatype.h'
	DB	00H
	ORG $+7
$SG160144 DB	'qRegisterNormalizedMetaType was called with a not normal'
	DB	'ized type name, please call qRegisterMetaType instead.', 00H
	ORG $+1
$SG160145 DB	'qRegisterNormalizedMetaType', 00H
	ORG $+4
$SG154033 DB	'D:\QT\5.15\5.15.1\msvc2019_64\include\QtCore\qmetatype.h'
	DB	00H
	ORG $+7
$SG154034 DB	'qRegisterNormalizedMetaType was called with a not normal'
	DB	'ized type name, please call qRegisterMetaType instead.', 00H
	ORG $+1
$SG154035 DB	'qRegisterNormalizedMetaType', 00H
CONST	ENDS
PUBLIC	?__empty_global_delete@@YAXPEAX@Z		; __empty_global_delete
PUBLIC	?__empty_global_delete@@YAXPEAX_K@Z		; __empty_global_delete
PUBLIC	??0SuperData@QMetaObject@@QEAA@PEBU1@@Z		; QMetaObject::SuperData::SuperData
PUBLIC	??C?$QScopedPointer@VQObjectData@@U?$QScopedPointerDeleter@VQObjectData@@@@@@QEBAPEAVQObjectData@@XZ ; QScopedPointer<QObjectData,QScopedPointerDeleter<QObjectData> >::operator->
PUBLIC	?metaObject@Settings@@UEBAPEBUQMetaObject@@XZ	; Settings::metaObject
PUBLIC	?qt_metacast@Settings@@UEAAPEAXPEBD@Z		; Settings::qt_metacast
PUBLIC	?qt_metacall@Settings@@UEAAHW4Call@QMetaObject@@HPEAPEAX@Z ; Settings::qt_metacall
PUBLIC	?qt_static_metacall@Settings@@CAXPEAVQObject@@W4Call@QMetaObject@@HPEAPEAX@Z ; Settings::qt_static_metacall
PUBLIC	??$link@$1?staticMetaObject@QWidget@@2UQMetaObject@@B@SuperData@QMetaObject@@SA?AU01@XZ ; QMetaObject::SuperData::link<&QWidget::staticMetaObject>
PUBLIC	??$staticMetaObject@$1?staticMetaObject@QWidget@@2UQMetaObject@@B@QMetaObject@@SAPEBU0@XZ ; QMetaObject::staticMetaObject<&QWidget::staticMetaObject>
PUBLIC	?staticMetaObject@Settings@@2UQMetaObject@@B	; Settings::staticMetaObject
EXTRN	strcmp:PROC
EXTRN	__imp_?dynamicMetaObject@QObjectData@@QEBAPEAUQMetaObject@@XZ:PROC
EXTRN	__imp_?qt_metacast@QWidget@@UEAAPEAXPEBD@Z:PROC
EXTRN	__imp_?qt_metacall@QWidget@@UEAAHW4Call@QMetaObject@@HPEAPEAX@Z:PROC
EXTRN	?on_editUsernameButton_clicked@Settings@@AEAAXXZ:PROC ; Settings::on_editUsernameButton_clicked
EXTRN	?on_editPasswordButton_clicked@Settings@@AEAAXXZ:PROC ; Settings::on_editPasswordButton_clicked
EXTRN	?on_pushButton_clicked@Settings@@AEAAXXZ:PROC	; Settings::on_pushButton_clicked
EXTRN	__imp_?staticMetaObject@QWidget@@2UQMetaObject@@B:BYTE
_BSS	SEGMENT
?staticMetaObject@Settings@@2UQMetaObject@@B DB 030H DUP (?) ; Settings::staticMetaObject
_BSS	ENDS
pdata	SEGMENT
$pdata$?metaObject@Settings@@UEBAPEBUQMetaObject@@XZ DD imagerel $LN5
	DD	imagerel $LN5+88
	DD	imagerel $unwind$?metaObject@Settings@@UEBAPEBUQMetaObject@@XZ
$pdata$?qt_metacast@Settings@@UEAAPEAXPEBD@Z DD imagerel $LN5
	DD	imagerel $LN5+75
	DD	imagerel $unwind$?qt_metacast@Settings@@UEAAPEAXPEBD@Z
$pdata$?qt_metacall@Settings@@UEAAHW4Call@QMetaObject@@HPEAPEAX@Z DD imagerel $LN9
	DD	imagerel $LN9+174
	DD	imagerel $unwind$?qt_metacall@Settings@@UEAAHW4Call@QMetaObject@@HPEAPEAX@Z
$pdata$?qt_static_metacall@Settings@@CAXPEAVQObject@@W4Call@QMetaObject@@HPEAPEAX@Z DD imagerel $LN10
	DD	imagerel $LN10+110
	DD	imagerel $unwind$?qt_static_metacall@Settings@@CAXPEAVQObject@@W4Call@QMetaObject@@HPEAPEAX@Z
pdata	ENDS
;	COMDAT pdata
pdata	SEGMENT
$pdata$??$link@$1?staticMetaObject@QWidget@@2UQMetaObject@@B@SuperData@QMetaObject@@SA?AU01@XZ DD imagerel $LN3
	DD	imagerel $LN3+37
	DD	imagerel $unwind$??$link@$1?staticMetaObject@QWidget@@2UQMetaObject@@B@SuperData@QMetaObject@@SA?AU01@XZ
pdata	ENDS
;	COMDAT pdata
pdata	SEGMENT
$pdata$??__E?staticMetaObject@Settings@@2UQMetaObject@@B@@YAXXZ DD imagerel ??__E?staticMetaObject@Settings@@2UQMetaObject@@B@@YAXXZ
	DD	imagerel ??__E?staticMetaObject@Settings@@2UQMetaObject@@B@@YAXXZ+85
	DD	imagerel $unwind$??__E?staticMetaObject@Settings@@2UQMetaObject@@B@@YAXXZ
pdata	ENDS
CRT$XCU	SEGMENT
??staticMetaObject$initializer$@Settings@@2P6AXXZEA@@3P6AXXZEA DQ FLAT:??__E?staticMetaObject@Settings@@2UQMetaObject@@B@@YAXXZ ; ??staticMetaObject$initializer$@Settings@@2P6AXXZEA@@3P6AXXZEA
CRT$XCU	ENDS
;	COMDAT xdata
xdata	SEGMENT
$unwind$??__E?staticMetaObject@Settings@@2UQMetaObject@@B@@YAXXZ DD 010401H
	DD	04204H
xdata	ENDS
;	COMDAT xdata
xdata	SEGMENT
$unwind$??$link@$1?staticMetaObject@QWidget@@2UQMetaObject@@B@SuperData@QMetaObject@@SA?AU01@XZ DD 010901H
	DD	04209H
xdata	ENDS
xdata	SEGMENT
$unwind$?metaObject@Settings@@UEBAPEBUQMetaObject@@XZ DD 010901H
	DD	06209H
$unwind$?qt_metacast@Settings@@UEAAPEAXPEBD@Z DD 010e01H
	DD	0420eH
$unwind$?qt_metacall@Settings@@UEAAHW4Call@QMetaObject@@HPEAPEAX@Z DD 011701H
	DD	04217H
$unwind$?qt_static_metacall@Settings@@CAXPEAVQObject@@W4Call@QMetaObject@@HPEAPEAX@Z DD 011701H
	DD	06217H
xdata	ENDS
; Function compile flags: /Odtp
;	COMDAT ??__E?staticMetaObject@Settings@@2UQMetaObject@@B@@YAXXZ
text$di	SEGMENT
??__E?staticMetaObject@Settings@@2UQMetaObject@@B@@YAXXZ PROC ; `dynamic initializer for 'Settings::staticMetaObject'', COMDAT
; File C:\Users\cgarg\source\repos\pmartellone13\PDS_Project\Client\ProgettoGUI\GeneratedFiles\Debug\moc_Settings.cpp
; Line 96
	sub	rsp, 40					; 00000028H
; Line 90
	lea	rcx, OFFSET FLAT:?staticMetaObject@Settings@@2UQMetaObject@@B ; Settings::staticMetaObject
	call	??$link@$1?staticMetaObject@QWidget@@2UQMetaObject@@B@SuperData@QMetaObject@@SA?AU01@XZ ; QMetaObject::SuperData::link<&QWidget::staticMetaObject>
; Line 91
	lea	rax, OFFSET FLAT:?qt_meta_stringdata_Settings@@3Uqt_meta_stringdata_Settings_t@@B
	mov	QWORD PTR ?staticMetaObject@Settings@@2UQMetaObject@@B+8, rax
; Line 92
	lea	rax, OFFSET FLAT:?qt_meta_data_Settings@@3QBIB
	mov	QWORD PTR ?staticMetaObject@Settings@@2UQMetaObject@@B+16, rax
; Line 93
	lea	rax, OFFSET FLAT:?qt_static_metacall@Settings@@CAXPEAVQObject@@W4Call@QMetaObject@@HPEAPEAX@Z ; Settings::qt_static_metacall
	mov	QWORD PTR ?staticMetaObject@Settings@@2UQMetaObject@@B+24, rax
; Line 94
	mov	QWORD PTR ?staticMetaObject@Settings@@2UQMetaObject@@B+32, 0
; Line 95
	mov	QWORD PTR ?staticMetaObject@Settings@@2UQMetaObject@@B+40, 0
	add	rsp, 40					; 00000028H
	ret	0
??__E?staticMetaObject@Settings@@2UQMetaObject@@B@@YAXXZ ENDP ; `dynamic initializer for 'Settings::staticMetaObject''
text$di	ENDS
; Function compile flags: /Odtp
;	COMDAT ??$staticMetaObject@$1?staticMetaObject@QWidget@@2UQMetaObject@@B@QMetaObject@@SAPEBU0@XZ
_TEXT	SEGMENT
??$staticMetaObject@$1?staticMetaObject@QWidget@@2UQMetaObject@@B@QMetaObject@@SAPEBU0@XZ PROC ; QMetaObject::staticMetaObject<&QWidget::staticMetaObject>, COMDAT
; File D:\QT\5.15\5.15.1\msvc2019_64\include\QtCore\qobjectdefs.h
; Line 577
	mov	rax, QWORD PTR __imp_?staticMetaObject@QWidget@@2UQMetaObject@@B
; Line 578
	ret	0
??$staticMetaObject@$1?staticMetaObject@QWidget@@2UQMetaObject@@B@QMetaObject@@SAPEBU0@XZ ENDP ; QMetaObject::staticMetaObject<&QWidget::staticMetaObject>
_TEXT	ENDS
; Function compile flags: /Odtp
;	COMDAT ??$link@$1?staticMetaObject@QWidget@@2UQMetaObject@@B@SuperData@QMetaObject@@SA?AU01@XZ
_TEXT	SEGMENT
__$ReturnUdt$ = 48
??$link@$1?staticMetaObject@QWidget@@2UQMetaObject@@B@SuperData@QMetaObject@@SA?AU01@XZ PROC ; QMetaObject::SuperData::link<&QWidget::staticMetaObject>, COMDAT
; File D:\QT\5.15\5.15.1\msvc2019_64\include\QtCore\qobjectdefs.h
; Line 600
$LN3:
	mov	QWORD PTR [rsp+8], rcx
	sub	rsp, 40					; 00000028H
	call	??$staticMetaObject@$1?staticMetaObject@QWidget@@2UQMetaObject@@B@QMetaObject@@SAPEBU0@XZ ; QMetaObject::staticMetaObject<&QWidget::staticMetaObject>
	mov	rdx, rax
	mov	rcx, QWORD PTR __$ReturnUdt$[rsp]
	call	??0SuperData@QMetaObject@@QEAA@PEBU1@@Z	; QMetaObject::SuperData::SuperData
	mov	rax, QWORD PTR __$ReturnUdt$[rsp]
	add	rsp, 40					; 00000028H
	ret	0
??$link@$1?staticMetaObject@QWidget@@2UQMetaObject@@B@SuperData@QMetaObject@@SA?AU01@XZ ENDP ; QMetaObject::SuperData::link<&QWidget::staticMetaObject>
_TEXT	ENDS
; Function compile flags: /Odtp
_TEXT	SEGMENT
tv69 = 32
_t$1 = 40
_o$ = 64
_c$ = 72
_id$ = 80
_a$ = 88
?qt_static_metacall@Settings@@CAXPEAVQObject@@W4Call@QMetaObject@@HPEAPEAX@Z PROC ; Settings::qt_static_metacall
; File C:\Users\cgarg\source\repos\pmartellone13\PDS_Project\Client\ProgettoGUI\GeneratedFiles\Debug\moc_Settings.cpp
; Line 75
$LN10:
	mov	QWORD PTR [rsp+32], r9
	mov	DWORD PTR [rsp+24], r8d
	mov	DWORD PTR [rsp+16], edx
	mov	QWORD PTR [rsp+8], rcx
	sub	rsp, 56					; 00000038H
; Line 76
	cmp	DWORD PTR _c$[rsp], 0
	jne	SHORT $LN4@qt_static_
; Line 77
	mov	rax, QWORD PTR _o$[rsp]
	mov	QWORD PTR _t$1[rsp], rax
; Line 79
	mov	eax, DWORD PTR _id$[rsp]
	mov	DWORD PTR tv69[rsp], eax
	cmp	DWORD PTR tv69[rsp], 0
	je	SHORT $LN5@qt_static_
	cmp	DWORD PTR tv69[rsp], 1
	je	SHORT $LN6@qt_static_
	cmp	DWORD PTR tv69[rsp], 2
	je	SHORT $LN7@qt_static_
	jmp	SHORT $LN8@qt_static_
$LN5@qt_static_:
; Line 80
	mov	rcx, QWORD PTR _t$1[rsp]
	call	?on_editUsernameButton_clicked@Settings@@AEAAXXZ ; Settings::on_editUsernameButton_clicked
	jmp	SHORT $LN2@qt_static_
$LN6@qt_static_:
; Line 81
	mov	rcx, QWORD PTR _t$1[rsp]
	call	?on_editPasswordButton_clicked@Settings@@AEAAXXZ ; Settings::on_editPasswordButton_clicked
	jmp	SHORT $LN2@qt_static_
$LN7@qt_static_:
; Line 82
	mov	rcx, QWORD PTR _t$1[rsp]
	call	?on_pushButton_clicked@Settings@@AEAAXXZ ; Settings::on_pushButton_clicked
$LN8@qt_static_:
$LN2@qt_static_:
$LN4@qt_static_:
; Line 87
	add	rsp, 56					; 00000038H
	ret	0
?qt_static_metacall@Settings@@CAXPEAVQObject@@W4Call@QMetaObject@@HPEAPEAX@Z ENDP ; Settings::qt_static_metacall
_TEXT	ENDS
; Function compile flags: /Odtp
_TEXT	SEGMENT
this$ = 48
_c$ = 56
_id$ = 64
_a$ = 72
?qt_metacall@Settings@@UEAAHW4Call@QMetaObject@@HPEAPEAX@Z PROC ; Settings::qt_metacall
; File C:\Users\cgarg\source\repos\pmartellone13\PDS_Project\Client\ProgettoGUI\GeneratedFiles\Debug\moc_Settings.cpp
; Line 113
$LN9:
	mov	QWORD PTR [rsp+32], r9
	mov	DWORD PTR [rsp+24], r8d
	mov	DWORD PTR [rsp+16], edx
	mov	QWORD PTR [rsp+8], rcx
	sub	rsp, 40					; 00000028H
; Line 114
	mov	r9, QWORD PTR _a$[rsp]
	mov	r8d, DWORD PTR _id$[rsp]
	mov	edx, DWORD PTR _c$[rsp]
	mov	rcx, QWORD PTR this$[rsp]
	call	QWORD PTR __imp_?qt_metacall@QWidget@@UEAAHW4Call@QMetaObject@@HPEAPEAX@Z
	mov	DWORD PTR _id$[rsp], eax
; Line 115
	cmp	DWORD PTR _id$[rsp], 0
	jge	SHORT $LN2@qt_metacal
; Line 116
	mov	eax, DWORD PTR _id$[rsp]
	jmp	SHORT $LN1@qt_metacal
$LN2@qt_metacal:
; Line 117
	cmp	DWORD PTR _c$[rsp], 0
	jne	SHORT $LN3@qt_metacal
; Line 118
	cmp	DWORD PTR _id$[rsp], 3
	jge	SHORT $LN5@qt_metacal
; Line 119
	mov	r9, QWORD PTR _a$[rsp]
	mov	r8d, DWORD PTR _id$[rsp]
	mov	edx, DWORD PTR _c$[rsp]
	mov	rcx, QWORD PTR this$[rsp]
	call	?qt_static_metacall@Settings@@CAXPEAVQObject@@W4Call@QMetaObject@@HPEAPEAX@Z ; Settings::qt_static_metacall
$LN5@qt_metacal:
; Line 120
	mov	eax, DWORD PTR _id$[rsp]
	sub	eax, 3
	mov	DWORD PTR _id$[rsp], eax
	jmp	SHORT $LN4@qt_metacal
$LN3@qt_metacal:
; Line 121
	cmp	DWORD PTR _c$[rsp], 12
	jne	SHORT $LN6@qt_metacal
; Line 122
	cmp	DWORD PTR _id$[rsp], 3
	jge	SHORT $LN7@qt_metacal
; Line 123
	mov	eax, 8
	imul	rax, rax, 0
	mov	rcx, QWORD PTR _a$[rsp]
	mov	rax, QWORD PTR [rcx+rax]
	mov	DWORD PTR [rax], -1
$LN7@qt_metacal:
; Line 124
	mov	eax, DWORD PTR _id$[rsp]
	sub	eax, 3
	mov	DWORD PTR _id$[rsp], eax
$LN6@qt_metacal:
$LN4@qt_metacal:
; Line 126
	mov	eax, DWORD PTR _id$[rsp]
$LN1@qt_metacal:
; Line 127
	add	rsp, 40					; 00000028H
	ret	0
?qt_metacall@Settings@@UEAAHW4Call@QMetaObject@@HPEAPEAX@Z ENDP ; Settings::qt_metacall
_TEXT	ENDS
; Function compile flags: /Odtp
_TEXT	SEGMENT
this$ = 48
_clname$ = 56
?qt_metacast@Settings@@UEAAPEAXPEBD@Z PROC		; Settings::qt_metacast
; File C:\Users\cgarg\source\repos\pmartellone13\PDS_Project\Client\ProgettoGUI\GeneratedFiles\Debug\moc_Settings.cpp
; Line 105
$LN5:
	mov	QWORD PTR [rsp+16], rdx
	mov	QWORD PTR [rsp+8], rcx
	sub	rsp, 40					; 00000028H
; Line 106
	cmp	QWORD PTR _clname$[rsp], 0
	jne	SHORT $LN2@qt_metacas
	xor	eax, eax
	jmp	SHORT $LN1@qt_metacas
$LN2@qt_metacas:
; Line 107
	lea	rdx, OFFSET FLAT:?qt_meta_stringdata_Settings@@3Uqt_meta_stringdata_Settings_t@@B+120
	mov	rcx, QWORD PTR _clname$[rsp]
	call	strcmp
	test	eax, eax
	jne	SHORT $LN3@qt_metacas
; Line 108
	mov	rax, QWORD PTR this$[rsp]
	jmp	SHORT $LN1@qt_metacas
$LN3@qt_metacas:
; Line 109
	mov	rdx, QWORD PTR _clname$[rsp]
	mov	rcx, QWORD PTR this$[rsp]
	call	QWORD PTR __imp_?qt_metacast@QWidget@@UEAAPEAXPEBD@Z
$LN1@qt_metacas:
; Line 110
	add	rsp, 40					; 00000028H
	ret	0
?qt_metacast@Settings@@UEAAPEAXPEBD@Z ENDP		; Settings::qt_metacast
_TEXT	ENDS
; Function compile flags: /Odtp
_TEXT	SEGMENT
tv82 = 32
this$ = 64
?metaObject@Settings@@UEBAPEBUQMetaObject@@XZ PROC	; Settings::metaObject
; File C:\Users\cgarg\source\repos\pmartellone13\PDS_Project\Client\ProgettoGUI\GeneratedFiles\Debug\moc_Settings.cpp
; Line 100
$LN5:
	mov	QWORD PTR [rsp+8], rcx
	sub	rsp, 56					; 00000038H
; Line 101
	mov	rax, QWORD PTR this$[rsp]
	add	rax, 8
	mov	rcx, rax
	call	??C?$QScopedPointer@VQObjectData@@U?$QScopedPointerDeleter@VQObjectData@@@@@@QEBAPEAVQObjectData@@XZ ; QScopedPointer<QObjectData,QScopedPointerDeleter<QObjectData> >::operator->
	cmp	QWORD PTR [rax+40], 0
	je	SHORT $LN3@metaObject
	mov	rax, QWORD PTR this$[rsp]
	add	rax, 8
	mov	rcx, rax
	call	??C?$QScopedPointer@VQObjectData@@U?$QScopedPointerDeleter@VQObjectData@@@@@@QEBAPEAVQObjectData@@XZ ; QScopedPointer<QObjectData,QScopedPointerDeleter<QObjectData> >::operator->
	mov	rcx, rax
	call	QWORD PTR __imp_?dynamicMetaObject@QObjectData@@QEBAPEAUQMetaObject@@XZ
	mov	QWORD PTR tv82[rsp], rax
	jmp	SHORT $LN4@metaObject
$LN3@metaObject:
	lea	rax, OFFSET FLAT:?staticMetaObject@Settings@@2UQMetaObject@@B ; Settings::staticMetaObject
	mov	QWORD PTR tv82[rsp], rax
$LN4@metaObject:
	mov	rax, QWORD PTR tv82[rsp]
; Line 102
	add	rsp, 56					; 00000038H
	ret	0
?metaObject@Settings@@UEBAPEBUQMetaObject@@XZ ENDP	; Settings::metaObject
_TEXT	ENDS
; Function compile flags: /Odtp
;	COMDAT ??C?$QScopedPointer@VQObjectData@@U?$QScopedPointerDeleter@VQObjectData@@@@@@QEBAPEAVQObjectData@@XZ
_TEXT	SEGMENT
this$ = 8
??C?$QScopedPointer@VQObjectData@@U?$QScopedPointerDeleter@VQObjectData@@@@@@QEBAPEAVQObjectData@@XZ PROC ; QScopedPointer<QObjectData,QScopedPointerDeleter<QObjectData> >::operator->, COMDAT
; File D:\QT\5.15\5.15.1\msvc2019_64\include\QtCore\qscopedpointer.h
; Line 117
	mov	QWORD PTR [rsp+8], rcx
; Line 118
	mov	rax, QWORD PTR this$[rsp]
	mov	rax, QWORD PTR [rax]
; Line 119
	ret	0
??C?$QScopedPointer@VQObjectData@@U?$QScopedPointerDeleter@VQObjectData@@@@@@QEBAPEAVQObjectData@@XZ ENDP ; QScopedPointer<QObjectData,QScopedPointerDeleter<QObjectData> >::operator->
_TEXT	ENDS
; Function compile flags: /Odtp
;	COMDAT ??0SuperData@QMetaObject@@QEAA@PEBU1@@Z
_TEXT	SEGMENT
this$ = 8
mo$ = 16
??0SuperData@QMetaObject@@QEAA@PEBU1@@Z PROC		; QMetaObject::SuperData::SuperData, COMDAT
; File D:\QT\5.15\5.15.1\msvc2019_64\include\QtCore\qobjectdefs.h
; Line 584
	mov	QWORD PTR [rsp+16], rdx
	mov	QWORD PTR [rsp+8], rcx
	mov	rax, QWORD PTR this$[rsp]
	mov	rcx, QWORD PTR mo$[rsp]
	mov	QWORD PTR [rax], rcx
	mov	rax, QWORD PTR this$[rsp]
	ret	0
??0SuperData@QMetaObject@@QEAA@PEBU1@@Z ENDP		; QMetaObject::SuperData::SuperData
_TEXT	ENDS
; Function compile flags: /Odtp
;	COMDAT ?__empty_global_delete@@YAXPEAX_K@Z
_TEXT	SEGMENT
__formal$ = 8
__formal$ = 16
?__empty_global_delete@@YAXPEAX_K@Z PROC		; __empty_global_delete, COMDAT
; File C:\Users\cgarg\source\repos\pmartellone13\PDS_Project\Client\ProgettoGUI\GeneratedFiles\Debug\moc_Settings.cpp
; Line 130
	mov	QWORD PTR [rsp+16], rdx
	mov	QWORD PTR [rsp+8], rcx
	ret	0
?__empty_global_delete@@YAXPEAX_K@Z ENDP		; __empty_global_delete
_TEXT	ENDS
; Function compile flags: /Odtp
;	COMDAT ?__empty_global_delete@@YAXPEAX@Z
_TEXT	SEGMENT
__formal$ = 8
?__empty_global_delete@@YAXPEAX@Z PROC			; __empty_global_delete, COMDAT
; File C:\Users\cgarg\source\repos\pmartellone13\PDS_Project\Client\ProgettoGUI\GeneratedFiles\Debug\moc_Settings.cpp
; Line 130
	mov	QWORD PTR [rsp+8], rcx
	ret	0
?__empty_global_delete@@YAXPEAX@Z ENDP			; __empty_global_delete
_TEXT	ENDS
END
